target datalayout = "e-m:e-p270:32:32-p271:32:32-p272:64:64-i64:64-i128:128-f80:128-n8:16:32:64-S128"
target triple = "x86_64-pc-linux-gnu"

%struct.mbedtls_cipher_context_t = type { ptr, i32, i32, ptr, ptr, [16 x i8], i64, [16 x i8], i64, ptr, ptr }
%struct.psa_aead_operation_s = type { i32, i32, i16, i64, i64, i8, %union.psa_driver_aead_context_t }
%union.psa_driver_aead_context_t = type { %struct.mbedtls_psa_aead_operation_t }
%struct.mbedtls_psa_aead_operation_t = type { i32, i16, i8, i8, %union.anon.1 }
%union.anon.1 = type { %struct.mbedtls_gcm_context }
%struct.mbedtls_gcm_context = type { %struct.mbedtls_cipher_context_t, [16 x i64], [16 x i64], i64, i64, [16 x i8], [16 x i8], [16 x i8], i32 }

; Function Attrs: nounwind uwtable
define internal i32 @mbedtls_psa_safer_memcmp(ptr noundef %0, ptr noundef %1, i64 noundef %2) #0 {
  %4 = alloca ptr, align 8
  %5 = alloca ptr, align 8
  %6 = alloca i64, align 8
  %7 = alloca i64, align 8
  %8 = alloca i8, align 1
  store ptr %0, ptr %4, align 8
  store ptr %1, ptr %5, align 8
  store i64 %2, ptr %6, align 8
  store i8 0, ptr %8, align 1
  store i64 0, ptr %7, align 8
  br label %9

9:                                                ; preds = %29, %3
  %10 = load i64, ptr %7, align 8
  %11 = load i64, ptr %6, align 8
  %12 = icmp ult i64 %10, %11
  br i1 %12, label %13, label %32

13:                                               ; preds = %9
  %14 = load ptr, ptr %4, align 8
  %15 = load i64, ptr %7, align 8
  %16 = getelementptr inbounds i8, ptr %14, i64 %15
  %17 = load i8, ptr %16, align 1
  %18 = zext i8 %17 to i32
  %19 = load ptr, ptr %5, align 8
  %20 = load i64, ptr %7, align 8
  %21 = getelementptr inbounds i8, ptr %19, i64 %20
  %22 = load i8, ptr %21, align 1
  %23 = zext i8 %22 to i32
  %24 = xor i32 %18, %23
  %25 = load i8, ptr %8, align 1
  %26 = zext i8 %25 to i32
  %27 = or i32 %26, %24
  %28 = trunc i32 %27 to i8
  store i8 %28, ptr %8, align 1
  br label %29

29:                                               ; preds = %13
  %30 = load i64, ptr %7, align 8
  %31 = add i64 %30, 1
  store i64 %31, ptr %7, align 8
  br label %9, !llvm.loop !4

32:                                               ; preds = %9
  %33 = load i8, ptr %8, align 1
  %34 = zext i8 %33 to i32
  ret i32 %34
}

; Function Attrs: nounwind uwtable
define hidden i32 @psa_driver_wrapper_aead_verify(ptr noundef %0, ptr noundef %1, i64 noundef %2, ptr noundef %3, ptr noundef %4, i64 noundef %5) #0 {
  %7 = alloca i32, align 4
  %8 = alloca ptr, align 8
  %9 = alloca ptr, align 8
  %10 = alloca i64, align 8
  %11 = alloca ptr, align 8
  %12 = alloca ptr, align 8
  %13 = alloca i64, align 8
  %14 = alloca i32, align 4
  %15 = alloca [16 x i8], align 16
  %16 = alloca i64, align 8
  store ptr %0, ptr %8, align 8
  store ptr %1, ptr %9, align 8
  store i64 %2, ptr %10, align 8
  store ptr %3, ptr %11, align 8
  store ptr %4, ptr %12, align 8
  store i64 %5, ptr %13, align 8
  %17 = load ptr, ptr %8, align 8
  %18 = getelementptr inbounds %struct.psa_aead_operation_s, ptr %17, i32 0, i32 0
  %19 = load i32, ptr %18, align 8
  switch i32 %19, label %45 [
    i32 1, label %20
  ]

20:                                               ; preds = %6
  store i32 -151, ptr %14, align 4
  %21 = load ptr, ptr %8, align 8
  %22 = getelementptr inbounds %struct.psa_aead_operation_s, ptr %21, i32 0, i32 6
  %23 = load ptr, ptr %9, align 8
  %24 = load i64, ptr %10, align 8
  %25 = load ptr, ptr %11, align 8
  %26 = getelementptr inbounds [16 x i8], ptr %15, i64 0, i64 0
  %27 = call i32 @mbedtls_psa_aead_finish(ptr noundef %22, ptr noundef %23, i64 noundef %24, ptr noundef %25, ptr noundef %26, i64 noundef 16, ptr noundef %16)
  store i32 %27, ptr %14, align 4
  %28 = load i32, ptr %14, align 4
  %29 = icmp eq i32 %28, 0
  br i1 %29, label %30, label %42

30:                                               ; preds = %20
  %31 = load i64, ptr %13, align 8
  %32 = load i64, ptr %16, align 8
  %33 = icmp ne i64 %31, %32
  br i1 %33, label %40, label %34

34:                                               ; preds = %30
  %35 = load ptr, ptr %12, align 8
  %36 = getelementptr inbounds [16 x i8], ptr %15, i64 0, i64 0
  %37 = load i64, ptr %13, align 8
  %38 = call i32 @mbedtls_psa_safer_memcmp(ptr noundef %35, ptr noundef %36, i64 noundef %37)
  %39 = icmp ne i32 %38, 0
  br i1 %39, label %40, label %41

40:                                               ; preds = %34, %30
  store i32 -149, ptr %14, align 4
  br label %41

41:                                               ; preds = %40, %34
  br label %42

42:                                               ; preds = %41, %20
  %43 = getelementptr inbounds [16 x i8], ptr %15, i64 0, i64 0
  call void @mbedtls_platform_zeroize(ptr noundef %43, i64 noundef 16)
  %44 = load i32, ptr %14, align 4
  store i32 %44, ptr %7, align 4
  br label %46

45:                                               ; preds = %6
  store i32 -135, ptr %7, align 4
  br label %46

46:                                               ; preds = %45, %42
  %47 = load i32, ptr %7, align 4
  ret i32 %47
}