; Function Attrs: nounwind uwtable
define hidden i32 @psa_driver_wrapper_aead_verify(ptr noundef %0, ptr noundef %1, i64 noundef %2, ptr noundef %3, ptr noundef readonly captures(none) %4, i64 noundef %5) local_unnamed_addr #1 {
  %7 = alloca [16 x i8], align 16
  %8 = alloca i64, align 8
  %9 = load i32, ptr %0, align 8
  %cond = icmp eq i32 %9, 1
  br i1 %cond, label %10, label %25

10:                                               ; preds = %6
  %11 = getelementptr inbounds nuw i8, ptr %0, i64 40
  %12 = call i32 @mbedtls_psa_aead_finish(ptr noundef nonnull %11, ptr noundef %1, i64 noundef %2, ptr noundef %3, ptr noundef nonnull %7, i64 noundef 16, ptr noundef nonnull %8) #5
  %13 = icmp eq i32 %12, 0
  br i1 %13, label %14, label %mbedtls_psa_safer_memcmp.exit.thread

14:                                               ; preds = %10
  %15 = load i64, ptr %8, align 8
  %.not = icmp eq i64 %5, %15
  br i1 %.not, label %16, label %24

16:                                               ; preds = %14
  %.not.i = icmp eq i64 %5, 0
  br i1 %.not.i, label %mbedtls_psa_safer_memcmp.exit.thread, label %.lr.ph.i

.lr.ph.i:                                         ; preds = %16, %.lr.ph.i
  %.010.i = phi i8 [ %22, %.lr.ph.i ], [ 0, %16 ]
  %.089.i = phi i64 [ %23, %.lr.ph.i ], [ 0, %16 ]
  %17 = getelementptr inbounds i8, ptr %4, i64 %.089.i
  %18 = load i8, ptr %17, align 1
  %19 = getelementptr inbounds i8, ptr %7, i64 %.089.i
  %20 = load i8, ptr %19, align 1
  %21 = xor i8 %20, %18
  %22 = or i8 %21, %.010.i
  %23 = add nuw i64 %.089.i, 1
  %exitcond.not.i = icmp eq i64 %23, %5
  br i1 %exitcond.not.i, label %mbedtls_psa_safer_memcmp.exit, label %.lr.ph.i, !llvm.loop !4

mbedtls_psa_safer_memcmp.exit:                    ; preds = %.lr.ph.i
  %.not13 = icmp eq i8 %22, 0
  br i1 %.not13, label %mbedtls_psa_safer_memcmp.exit.thread, label %24

24:                                               ; preds = %mbedtls_psa_safer_memcmp.exit, %14
  br label %mbedtls_psa_safer_memcmp.exit.thread

mbedtls_psa_safer_memcmp.exit.thread:             ; preds = %16, %mbedtls_psa_safer_memcmp.exit, %24, %10
  %.0 = phi i32 [ -149, %24 ], [ 0, %mbedtls_psa_safer_memcmp.exit ], [ %12, %10 ], [ 0, %16 ]
  call void @mbedtls_platform_zeroize(ptr noundef nonnull %7, i64 noundef 16) #5
  br label %25

25:                                               ; preds = %6, %mbedtls_psa_safer_memcmp.exit.thread
  %.010 = phi i32 [ %.0, %mbedtls_psa_safer_memcmp.exit.thread ], [ -135, %6 ]
  ret i32 %.010
}